; Function Attrs: mustprogress nounwind uwtable
define hidden noundef i32 @_ZNK4ncnn20LayerNorm_x86_avx51215forward_inplaceERNS_3MatERKNS_6OptionE(ptr noundef nonnull align 8 dereferenceable(368) %0, ptr noundef nonnull align 8 dereferenceable(72) %1, ptr noundef nonnull readonly align 8 captures(none) dereferenceable(64) %2) unnamed_addr #2 align 2 {
  %4 = alloca i32, align 4
  %5 = alloca i32, align 4
  %6 = alloca i32, align 4
  %7 = alloca i32, align 4
  %8 = tail call i32 @__kmpc_global_thread_num(ptr nonnull @2)
  %9 = getelementptr inbounds nuw i8, ptr %1, i64 40
  %10 = load i32, ptr %9, align 8, !tbaa !18
  call void @llvm.lifetime.start.p0(i64 4, ptr nonnull %4) #7
  %11 = getelementptr inbounds nuw i8, ptr %1, i64 24
  %12 = load i32, ptr %11, align 8, !tbaa !19
  store i32 %12, ptr %4, align 4, !tbaa !20
  call void @llvm.lifetime.start.p0(i64 4, ptr nonnull %5) #7
  %13 = getelementptr inbounds nuw i8, ptr %1, i64 44
  %14 = load i32, ptr %13, align 4, !tbaa !21
  store i32 %14, ptr %5, align 4, !tbaa !20
  call void @llvm.lifetime.start.p0(i64 4, ptr nonnull %6) #7
  %15 = getelementptr inbounds nuw i8, ptr %1, i64 48
  %16 = load i32, ptr %15, align 8, !tbaa !22
  store i32 %16, ptr %6, align 4, !tbaa !20
  call void @llvm.lifetime.start.p0(i64 4, ptr nonnull %7) #7
  %17 = getelementptr inbounds nuw i8, ptr %1, i64 56
  %18 = load i32, ptr %17, align 8, !tbaa !23
  store i32 %18, ptr %7, align 4, !tbaa !20
  switch i32 %10, label %39 [
    i32 1, label %19
    i32 2, label %28
    i32 3, label %31
  ]

19:                                               ; preds = %3
  %20 = load ptr, ptr %1, align 8, !tbaa !16
  %21 = getelementptr inbounds nuw i8, ptr %0, i64 224
  %22 = load ptr, ptr %21, align 8, !tbaa !16
  %23 = getelementptr inbounds nuw i8, ptr %0, i64 296
  %24 = load ptr, ptr %23, align 8, !tbaa !16
  %25 = getelementptr inbounds nuw i8, ptr %0, i64 212
  %26 = load float, ptr %25, align 4, !tbaa !24
  %27 = mul nsw i32 %14, %12
  tail call fastcc void @_ZN4ncnnL9layernormEPfPKfS2_fii(ptr noundef %20, ptr noundef %22, ptr noundef %24, float noundef nofpclass(nan inf) %26, i32 noundef %27, i32 noundef 1)
  br label %39

28:                                               ; preds = %3
  %29 = getelementptr inbounds nuw i8, ptr %2, i64 4
  %30 = load i32, ptr %29, align 4, !tbaa !41
  tail call void @__kmpc_push_num_threads(ptr nonnull @2, i32 %8, i32 %30)
  call void (ptr, i32, ptr, ...) @__kmpc_fork_call(ptr nonnull @2, i32 5, ptr nonnull @_ZNK4ncnn20LayerNorm_x86_avx51215forward_inplaceERNS_3MatERKNS_6OptionE.omp_outlined, ptr nonnull %6, ptr nonnull %1, ptr nonnull %0, ptr nonnull %5, ptr nonnull %4)
  br label %39

31:                                               ; preds = %3
  %32 = getelementptr inbounds nuw i8, ptr %0, i64 208
  %33 = load i32, ptr %32, align 8, !tbaa !43
  %34 = icmp eq i32 %33, %14
  %35 = getelementptr inbounds nuw i8, ptr %2, i64 4
  %36 = load i32, ptr %35, align 4, !tbaa !41
  tail call void @__kmpc_push_num_threads(ptr nonnull @2, i32 %8, i32 %36)
  br i1 %34, label %37, label %38

37:                                               ; preds = %31
  call void (ptr, i32, ptr, ...) @__kmpc_fork_call(ptr nonnull @2, i32 6, ptr nonnull @_ZNK4ncnn20LayerNorm_x86_avx51215forward_inplaceERNS_3MatERKNS_6OptionE.omp_outlined.1, ptr nonnull %7, ptr nonnull %6, ptr nonnull %1, ptr nonnull %0, ptr nonnull %5, ptr nonnull %4)
  br label %39

38:                                               ; preds = %31
  call void (ptr, i32, ptr, ...) @__kmpc_fork_call(ptr nonnull @2, i32 6, ptr nonnull @_ZNK4ncnn20LayerNorm_x86_avx51215forward_inplaceERNS_3MatERKNS_6OptionE.omp_outlined.2, ptr nonnull %7, ptr nonnull %1, ptr nonnull %0, ptr nonnull %5, ptr nonnull %6, ptr nonnull %4)
  br label %39

39:                                               ; preds = %28, %19, %3, %37, %38
  call void @llvm.lifetime.end.p0(i64 4, ptr nonnull %7) #7
  call void @llvm.lifetime.end.p0(i64 4, ptr nonnull %6) #7
  call void @llvm.lifetime.end.p0(i64 4, ptr nonnull %5) #7
  call void @llvm.lifetime.end.p0(i64 4, ptr nonnull %4) #7
  ret i32 0
}